target datalayout = "e-m:e-p270:32:32-p271:32:32-p272:64:64-i64:64-i128:128-f80:128-n8:16:32:64-S128"
target triple = "x86_64-pc-linux-gnu"

%struct.lean_string_object = type { %struct.lean_object, i64, i64, i64, [0 x i8] }
%struct.lean_object = type { i32, i32 }

@.str.17 = private unnamed_addr constant [1 x i8] zeroinitializer, align 1

; Function Attrs: inlinehint mustprogress nounwind uwtable
define internal void @_ZL18lean_set_st_headerP11lean_objectjj(ptr noundef %0, i32 noundef %1, i32 noundef %2) #9 {
  %4 = alloca ptr, align 8
  %5 = alloca i32, align 4
  %6 = alloca i32, align 4
  store ptr %0, ptr %4, align 8, !tbaa !3
  store i32 %1, ptr %5, align 4, !tbaa !19
  store i32 %2, ptr %6, align 4, !tbaa !19
  %7 = load ptr, ptr %4, align 8, !tbaa !3
  %8 = getelementptr inbounds nuw %struct.lean_object, ptr %7, i32 0, i32 0
  store i32 1, ptr %8, align 4, !tbaa !31
  %9 = load i32, ptr %5, align 4, !tbaa !19
  %10 = load ptr, ptr %4, align 8, !tbaa !3
  %11 = getelementptr inbounds nuw %struct.lean_object, ptr %10, i32 0, i32 1
  %12 = load i32, ptr %11, align 4
  %13 = and i32 %9, 255
  %14 = shl i32 %13, 24
  %15 = and i32 %12, 16777215
  %16 = or i32 %15, %14
  store i32 %16, ptr %11, align 4
  %17 = load i32, ptr %6, align 4, !tbaa !19
  %18 = load ptr, ptr %4, align 8, !tbaa !3
  %19 = getelementptr inbounds nuw %struct.lean_object, ptr %18, i32 0, i32 1
  %20 = load i32, ptr %19, align 4
  %21 = and i32 %17, 255
  %22 = shl i32 %21, 16
  %23 = and i32 %20, -16711681
  %24 = or i32 %23, %22
  store i32 %24, ptr %19, align 4
  ret void
}

; Function Attrs: mustprogress uwtable
define ptr @lean_alloc_object(i64 noundef %0) #0 {
  %2 = alloca i64, align 8
  %3 = alloca ptr, align 8
  %4 = alloca ptr, align 8
  store i64 %0, ptr %2, align 8, !tbaa !7
  call void @llvm.lifetime.start.p0(i64 8, ptr %3) #23
  %5 = load i64, ptr %2, align 8, !tbaa !7
  %6 = call noalias ptr @mi_malloc(i64 noundef %5) #23
  store ptr %6, ptr %3, align 8, !tbaa !3
  %7 = load ptr, ptr %3, align 8, !tbaa !3
  %8 = icmp eq ptr %7, null
  br i1 %8, label %9, label %10

9:                                                ; preds = %1
  call void @lean_internal_panic_out_of_memory() #25
  unreachable

10:                                               ; preds = %1
  call void @llvm.lifetime.start.p0(i64 8, ptr %4) #23
  %11 = load ptr, ptr %3, align 8, !tbaa !3
  store ptr %11, ptr %4, align 8, !tbaa !3
  %12 = load ptr, ptr %4, align 8, !tbaa !3
  %13 = getelementptr inbounds nuw %struct.lean_object, ptr %12, i32 0, i32 1
  %14 = load i32, ptr %13, align 4
  %15 = and i32 %14, -65536
  %16 = or i32 %15, 0
  store i32 %16, ptr %13, align 4
  %17 = load ptr, ptr %4, align 8, !tbaa !3
  call void @llvm.lifetime.end.p0(i64 8, ptr %4) #23
  call void @llvm.lifetime.end.p0(i64 8, ptr %3) #23
  ret ptr %17
}

; Function Attrs: inlinehint mustprogress uwtable
define internal noundef ptr @_ZN4leanL13w_string_cstrEP11lean_object(ptr noundef %0) #3 {
  %2 = alloca ptr, align 8
  store ptr %0, ptr %2, align 8, !tbaa !3
  %3 = load ptr, ptr %2, align 8, !tbaa !3
  %4 = call noundef ptr @_ZL14lean_to_stringP11lean_object(ptr noundef %3)
  %5 = getelementptr inbounds nuw %struct.lean_string_object, ptr %4, i32 0, i32 4
  %6 = getelementptr inbounds [0 x i8], ptr %5, i64 0, i64 0
  ret ptr %6
}

; Function Attrs: inlinehint mustprogress uwtable
define internal noundef ptr @_ZL17lean_alloc_stringmmm(i64 noundef %0, i64 noundef %1, i64 noundef %2) #3 {
  %4 = alloca i64, align 8
  %5 = alloca i64, align 8
  %6 = alloca i64, align 8
  %7 = alloca ptr, align 8
  store i64 %0, ptr %4, align 8, !tbaa !7
  store i64 %1, ptr %5, align 8, !tbaa !7
  store i64 %2, ptr %6, align 8, !tbaa !7
  call void @llvm.lifetime.start.p0(i64 8, ptr %7) #23
  %8 = load i64, ptr %5, align 8, !tbaa !7
  %9 = add i64 32, %8
  %10 = call ptr @lean_alloc_object(i64 noundef %9)
  store ptr %10, ptr %7, align 8, !tbaa !3
  %11 = load ptr, ptr %7, align 8, !tbaa !3
  call void @_ZL18lean_set_st_headerP11lean_objectjj(ptr noundef %11, i32 noundef 249, i32 noundef 0)
  %12 = load i64, ptr %4, align 8, !tbaa !7
  %13 = load ptr, ptr %7, align 8, !tbaa !3
  %14 = getelementptr inbounds nuw %struct.lean_string_object, ptr %13, i32 0, i32 1
  store i64 %12, ptr %14, align 8, !tbaa !7
  %15 = load i64, ptr %5, align 8, !tbaa !7
  %16 = load ptr, ptr %7, align 8, !tbaa !3
  %17 = getelementptr inbounds nuw %struct.lean_string_object, ptr %16, i32 0, i32 2
  store i64 %15, ptr %17, align 8, !tbaa !7
  %18 = load i64, ptr %6, align 8, !tbaa !7
  %19 = load ptr, ptr %7, align 8, !tbaa !3
  %20 = getelementptr inbounds nuw %struct.lean_string_object, ptr %19, i32 0, i32 3
  store i64 %18, ptr %20, align 8, !tbaa !7
  %21 = load ptr, ptr %7, align 8, !tbaa !3
  call void @llvm.lifetime.end.p0(i64 8, ptr %7) #23
  ret ptr %21
}

; Function Attrs: inlinehint mustprogress nounwind uwtable
define internal noundef ptr @_ZL14lean_to_stringP11lean_object(ptr noundef %0) #9 {
  %2 = alloca ptr, align 8
  store ptr %0, ptr %2, align 8, !tbaa !3
  %3 = load ptr, ptr %2, align 8, !tbaa !3
  ret ptr %3
}

; Function Attrs: mustprogress uwtable
define ptr @lean_mk_string_from_bytes_unchecked(ptr noundef %0, i64 noundef %1) #0 {
  %3 = alloca ptr, align 8
  %4 = alloca i64, align 8
  store ptr %0, ptr %3, align 8, !tbaa !9
  store i64 %1, ptr %4, align 8, !tbaa !7
  %5 = load ptr, ptr %3, align 8, !tbaa !9
  %6 = load i64, ptr %4, align 8, !tbaa !7
  %7 = load ptr, ptr %3, align 8, !tbaa !9
  %8 = load i64, ptr %4, align 8, !tbaa !7
  %9 = call noundef i64 @_ZN4lean11utf8_strlenEPKcm(ptr noundef %7, i64 noundef %8)
  %10 = call ptr @lean_mk_string_unchecked(ptr noundef %5, i64 noundef %6, i64 noundef %9)
  ret ptr %10
}

; Function Attrs: inlinehint mustprogress nounwind uwtable
define internal noundef zeroext i1 @_ZN4leanL18is_utf8_first_byteEh(i8 noundef zeroext %0) #9 {
  %2 = alloca i8, align 1
  store i8 %0, ptr %2, align 1, !tbaa !26
  %3 = load i8, ptr %2, align 1, !tbaa !26
  %4 = zext i8 %3 to i32
  %5 = and i32 %4, 128
  %6 = icmp eq i32 %5, 0
  br i1 %6, label %22, label %7

7:                                                ; preds = %1
  %8 = load i8, ptr %2, align 1, !tbaa !26
  %9 = zext i8 %8 to i32
  %10 = and i32 %9, 224
  %11 = icmp eq i32 %10, 192
  br i1 %11, label %22, label %12

12:                                               ; preds = %7
  %13 = load i8, ptr %2, align 1, !tbaa !26
  %14 = zext i8 %13 to i32
  %15 = and i32 %14, 240
  %16 = icmp eq i32 %15, 224
  br i1 %16, label %22, label %17

17:                                               ; preds = %12
  %18 = load i8, ptr %2, align 1, !tbaa !26
  %19 = zext i8 %18 to i32
  %20 = and i32 %19, 248
  %21 = icmp eq i32 %20, 240
  br label %22

22:                                               ; preds = %17, %12, %7, %1
  %23 = phi i1 [ true, %12 ], [ true, %7 ], [ true, %1 ], [ %21, %17 ]
  ret i1 %23
}

; Function Attrs: mustprogress uwtable
define ptr @lean_mk_string_unchecked(ptr noundef %0, i64 noundef %1, i64 noundef %2) #0 {
  %4 = alloca ptr, align 8
  %5 = alloca i64, align 8
  %6 = alloca i64, align 8
  %7 = alloca i64, align 8
  %8 = alloca ptr, align 8
  store ptr %0, ptr %4, align 8, !tbaa !9
  store i64 %1, ptr %5, align 8, !tbaa !7
  store i64 %2, ptr %6, align 8, !tbaa !7
  call void @llvm.lifetime.start.p0(i64 8, ptr %7) #23
  %9 = load i64, ptr %5, align 8, !tbaa !7
  %10 = add i64 %9, 1
  store i64 %10, ptr %7, align 8, !tbaa !7
  call void @llvm.lifetime.start.p0(i64 8, ptr %8) #23
  %11 = load i64, ptr %7, align 8, !tbaa !7
  %12 = load i64, ptr %7, align 8, !tbaa !7
  %13 = load i64, ptr %6, align 8, !tbaa !7
  %14 = call noundef ptr @_ZL17lean_alloc_stringmmm(i64 noundef %11, i64 noundef %12, i64 noundef %13)
  store ptr %14, ptr %8, align 8, !tbaa !3
  %15 = load ptr, ptr %8, align 8, !tbaa !3
  %16 = call noundef ptr @_ZN4leanL13w_string_cstrEP11lean_object(ptr noundef %15)
  %17 = load ptr, ptr %4, align 8, !tbaa !9
  %18 = load i64, ptr %5, align 8, !tbaa !7
  call void @llvm.memcpy.p0.p0.i64(ptr align 1 %16, ptr align 1 %17, i64 %18, i1 false)
  %19 = load ptr, ptr %8, align 8, !tbaa !3
  %20 = call noundef ptr @_ZN4leanL13w_string_cstrEP11lean_object(ptr noundef %19)
  %21 = load i64, ptr %5, align 8, !tbaa !7
  %22 = getelementptr inbounds nuw i8, ptr %20, i64 %21
  store i8 0, ptr %22, align 1, !tbaa !26
  %23 = load ptr, ptr %8, align 8, !tbaa !3
  call void @llvm.lifetime.end.p0(i64 8, ptr %8) #23
  call void @llvm.lifetime.end.p0(i64 8, ptr %7) #23
  ret ptr %23
}

; Function Attrs: inlinehint mustprogress uwtable
define internal noundef i64 @_ZL16lean_string_sizeP11lean_object(ptr noundef %0) #3 {
  %2 = alloca ptr, align 8
  store ptr %0, ptr %2, align 8, !tbaa !3
  %3 = load ptr, ptr %2, align 8, !tbaa !3
  %4 = call noundef ptr @_ZL14lean_to_stringP11lean_object(ptr noundef %3)
  %5 = getelementptr inbounds nuw %struct.lean_string_object, ptr %4, i32 0, i32 1
  %6 = load i64, ptr %5, align 8, !tbaa !7
  ret i64 %6
}

; Function Attrs: inlinehint mustprogress uwtable
define internal noundef ptr @_ZL16lean_string_cstrP11lean_object(ptr noundef %0) #3 {
  %2 = alloca ptr, align 8
  store ptr %0, ptr %2, align 8, !tbaa !3
  %3 = load ptr, ptr %2, align 8, !tbaa !3
  %4 = call noundef ptr @_ZL14lean_to_stringP11lean_object(ptr noundef %3)
  %5 = getelementptr inbounds nuw %struct.lean_string_object, ptr %4, i32 0, i32 4
  %6 = getelementptr inbounds [0 x i8], ptr %5, i64 0, i64 0
  ret ptr %6
}

; Function Attrs: inlinehint mustprogress nounwind uwtable
define internal noundef i64 @_ZL10lean_unboxP11lean_object(ptr noundef %0) #9 {
  %2 = alloca ptr, align 8
  store ptr %0, ptr %2, align 8, !tbaa !3
  %3 = load ptr, ptr %2, align 8, !tbaa !3
  %4 = ptrtoint ptr %3 to i64
  %5 = lshr i64 %4, 1
  ret i64 %5
}

; Function Attrs: alwaysinline mustprogress nounwind uwtable
define internal noundef zeroext i1 @_ZL14lean_is_scalarP11lean_object(ptr noundef %0) #11 {
  %2 = alloca ptr, align 8
  store ptr %0, ptr %2, align 8, !tbaa !3
  %3 = load ptr, ptr %2, align 8, !tbaa !3
  %4 = ptrtoint ptr %3 to i64
  %5 = and i64 %4, 1
  %6 = icmp eq i64 %5, 1
  ret i1 %6
}

; Function Attrs: mustprogress uwtable
define ptr @lean_string_utf8_extract(ptr noundef %0, ptr noundef %1, ptr noundef %2) #0 {
  %4 = alloca ptr, align 8
  %5 = alloca ptr, align 8
  %6 = alloca ptr, align 8
  %7 = alloca ptr, align 8
  %8 = alloca i64, align 8
  %9 = alloca i64, align 8
  %10 = alloca ptr, align 8
  %11 = alloca i64, align 8
  %12 = alloca i32, align 4
  %13 = alloca i64, align 8
  store ptr %0, ptr %5, align 8, !tbaa !3
  store ptr %1, ptr %6, align 8, !tbaa !3
  store ptr %2, ptr %7, align 8, !tbaa !3
  %14 = load ptr, ptr %6, align 8, !tbaa !3
  %15 = call noundef zeroext i1 @_ZL14lean_is_scalarP11lean_object(ptr noundef %14)
  br i1 %15, label %16, label %19

16:                                               ; preds = %3
  %17 = load ptr, ptr %7, align 8, !tbaa !3
  %18 = call noundef zeroext i1 @_ZL14lean_is_scalarP11lean_object(ptr noundef %17)
  br i1 %18, label %21, label %19

19:                                               ; preds = %16, %3
  %20 = load ptr, ptr %5, align 8, !tbaa !3
  store ptr %20, ptr %4, align 8
  br label %77

21:                                               ; preds = %16
  call void @llvm.lifetime.start.p0(i64 8, ptr %8) #23
  %22 = load ptr, ptr %6, align 8, !tbaa !3
  %23 = call noundef i64 @_ZL10lean_unboxP11lean_object(ptr noundef %22)
  store i64 %23, ptr %8, align 8, !tbaa !7
  call void @llvm.lifetime.start.p0(i64 8, ptr %9) #23
  %24 = load ptr, ptr %7, align 8, !tbaa !3
  %25 = call noundef i64 @_ZL10lean_unboxP11lean_object(ptr noundef %24)
  store i64 %25, ptr %9, align 8, !tbaa !7
  call void @llvm.lifetime.start.p0(i64 8, ptr %10) #23
  %26 = load ptr, ptr %5, align 8, !tbaa !3
  %27 = call noundef ptr @_ZL16lean_string_cstrP11lean_object(ptr noundef %26)
  store ptr %27, ptr %10, align 8, !tbaa !9
  call void @llvm.lifetime.start.p0(i64 8, ptr %11) #23
  %28 = load ptr, ptr %5, align 8, !tbaa !3
  %29 = call noundef i64 @_ZL16lean_string_sizeP11lean_object(ptr noundef %28)
  %30 = sub i64 %29, 1
  store i64 %30, ptr %11, align 8, !tbaa !7
  %31 = load i64, ptr %8, align 8, !tbaa !7
  %32 = load i64, ptr %9, align 8, !tbaa !7
  %33 = icmp uge i64 %31, %32
  br i1 %33, label %38, label %34

34:                                               ; preds = %21
  %35 = load i64, ptr %8, align 8, !tbaa !7
  %36 = load i64, ptr %11, align 8, !tbaa !7
  %37 = icmp uge i64 %35, %36
  br i1 %37, label %38, label %40

38:                                               ; preds = %34, %21
  %39 = call ptr @lean_mk_string_unchecked(ptr noundef @.str.17, i64 noundef 0, i64 noundef 0)
  store ptr %39, ptr %4, align 8
  store i32 1, ptr %12, align 4
  br label %76

40:                                               ; preds = %34
  %41 = load ptr, ptr %10, align 8, !tbaa !9
  %42 = load i64, ptr %8, align 8, !tbaa !7
  %43 = getelementptr inbounds nuw i8, ptr %41, i64 %42
  %44 = load i8, ptr %43, align 1, !tbaa !26
  %45 = call noundef zeroext i1 @_ZN4leanL18is_utf8_first_byteEh(i8 noundef zeroext %44)
  br i1 %45, label %48, label %46

46:                                               ; preds = %40
  %47 = call ptr @lean_mk_string_unchecked(ptr noundef @.str.17, i64 noundef 0, i64 noundef 0)
  store ptr %47, ptr %4, align 8
  store i32 1, ptr %12, align 4
  br label %76

48:                                               ; preds = %40
  %49 = load i64, ptr %9, align 8, !tbaa !7
  %50 = load i64, ptr %11, align 8, !tbaa !7
  %51 = icmp ugt i64 %49, %50
  br i1 %51, label %52, label %54

52:                                               ; preds = %48
  %53 = load i64, ptr %11, align 8, !tbaa !7
  store i64 %53, ptr %9, align 8, !tbaa !7
  br label %54

54:                                               ; preds = %52, %48
  %55 = load i64, ptr %9, align 8, !tbaa !7
  %56 = load i64, ptr %11, align 8, !tbaa !7
  %57 = icmp ult i64 %55, %56
  br i1 %57, label %58, label %66

58:                                               ; preds = %54
  %59 = load ptr, ptr %10, align 8, !tbaa !9
  %60 = load i64, ptr %9, align 8, !tbaa !7
  %61 = getelementptr inbounds nuw i8, ptr %59, i64 %60
  %62 = load i8, ptr %61, align 1, !tbaa !26
  %63 = call noundef zeroext i1 @_ZN4leanL18is_utf8_first_byteEh(i8 noundef zeroext %62)
  br i1 %63, label %66, label %64

64:                                               ; preds = %58
  %65 = load i64, ptr %11, align 8, !tbaa !7
  store i64 %65, ptr %9, align 8, !tbaa !7
  br label %66

66:                                               ; preds = %64, %58, %54
  call void @llvm.lifetime.start.p0(i64 8, ptr %13) #23
  %67 = load i64, ptr %9, align 8, !tbaa !7
  %68 = load i64, ptr %8, align 8, !tbaa !7
  %69 = sub i64 %67, %68
  store i64 %69, ptr %13, align 8, !tbaa !7
  %70 = load ptr, ptr %5, align 8, !tbaa !3
  %71 = call noundef ptr @_ZL16lean_string_cstrP11lean_object(ptr noundef %70)
  %72 = load i64, ptr %8, align 8, !tbaa !7
  %73 = getelementptr inbounds nuw i8, ptr %71, i64 %72
  %74 = load i64, ptr %13, align 8, !tbaa !7
  %75 = call ptr @lean_mk_string_from_bytes_unchecked(ptr noundef %73, i64 noundef %74)
  store ptr %75, ptr %4, align 8
  store i32 1, ptr %12, align 4
  call void @llvm.lifetime.end.p0(i64 8, ptr %13) #23
  br label %76

76:                                               ; preds = %66, %46, %38
  call void @llvm.lifetime.end.p0(i64 8, ptr %11) #23
  call void @llvm.lifetime.end.p0(i64 8, ptr %10) #23
  call void @llvm.lifetime.end.p0(i64 8, ptr %9) #23
  call void @llvm.lifetime.end.p0(i64 8, ptr %8) #23
  br label %77

77:                                               ; preds = %76, %19
  %78 = load ptr, ptr %4, align 8
  ret ptr %78
}