; Function Attrs: mustprogress uwtable
define ptr @lean_string_utf8_extract(ptr noundef %0, ptr noundef %1, ptr noundef %2) local_unnamed_addr #0 {
  %4 = ptrtoint ptr %1 to i64
  %5 = and i64 %4, 1
  %.not40 = icmp eq i64 %5, 0
  br i1 %.not40, label %69, label %6

6:                                                ; preds = %3
  %7 = ptrtoint ptr %2 to i64
  %8 = and i64 %7, 1
  %.not41 = icmp eq i64 %8, 0
  br i1 %.not41, label %69, label %9

9:                                                ; preds = %6
  %10 = lshr i64 %4, 1
  %11 = lshr i64 %7, 1
  %12 = getelementptr inbounds nuw i8, ptr %0, i64 32
  %13 = getelementptr i8, ptr %0, i64 8
  %.val = load i64, ptr %13, align 8, !tbaa !30
  %14 = add i64 %.val, -1
  %.not = icmp samesign ult i64 %10, %11
  %.not31 = icmp ult i64 %10, %14
  %or.cond = and i1 %.not, %.not31
  br i1 %or.cond, label %24, label %15

15:                                               ; preds = %9
  %16 = tail call noalias ptr @mi_malloc(i64 noundef 33) #40
  %17 = icmp eq ptr %16, null
  br i1 %17, label %18, label %lean_mk_string_unchecked.exit

18:                                               ; preds = %15
  tail call void @lean_internal_panic_out_of_memory() #43
  unreachable

lean_mk_string_unchecked.exit:                    ; preds = %15
  %19 = getelementptr inbounds nuw i8, ptr %16, i64 4
  store i32 1, ptr %16, align 4, !tbaa !23
  store i32 -117440512, ptr %19, align 4
  %20 = getelementptr inbounds nuw i8, ptr %16, i64 8
  store i64 1, ptr %20, align 8, !tbaa !30
  %21 = getelementptr inbounds nuw i8, ptr %16, i64 16
  store i64 1, ptr %21, align 8, !tbaa !30
  %22 = getelementptr inbounds nuw i8, ptr %16, i64 24
  store i64 0, ptr %22, align 8, !tbaa !30
  %23 = getelementptr inbounds nuw i8, ptr %16, i64 32
  store i8 0, ptr %23, align 1, !tbaa !57
  br label %69

24:                                               ; preds = %9
  %25 = getelementptr inbounds nuw i8, ptr %12, i64 %10
  %26 = load i8, ptr %25, align 1, !tbaa !57
  %27 = zext i8 %26 to i32
  %28 = icmp sgt i8 %26, -1
  %29 = and i32 %27, 224
  %30 = icmp eq i32 %29, 192
  %or.cond.i = or i1 %28, %30
  %31 = and i32 %27, 240
  %32 = icmp eq i32 %31, 224
  %or.cond6.i = or i1 %32, %or.cond.i
  %33 = and i32 %27, 248
  %34 = icmp eq i32 %33, 240
  %or.cond39 = or i1 %34, %or.cond6.i
  br i1 %or.cond39, label %_ZN4leanL18is_utf8_first_byteEh.exit.thread, label %35

35:                                               ; preds = %24
  %36 = tail call noalias ptr @mi_malloc(i64 noundef 33) #40
  %37 = icmp eq ptr %36, null
  br i1 %37, label %38, label %lean_mk_string_unchecked.exit33

38:                                               ; preds = %35
  tail call void @lean_internal_panic_out_of_memory() #43
  unreachable

lean_mk_string_unchecked.exit33:                  ; preds = %35
  %39 = getelementptr inbounds nuw i8, ptr %36, i64 4
  store i32 1, ptr %36, align 4, !tbaa !23
  store i32 -117440512, ptr %39, align 4
  %40 = getelementptr inbounds nuw i8, ptr %36, i64 8
  store i64 1, ptr %40, align 8, !tbaa !30
  %41 = getelementptr inbounds nuw i8, ptr %36, i64 16
  store i64 1, ptr %41, align 8, !tbaa !30
  %42 = getelementptr inbounds nuw i8, ptr %36, i64 24
  store i64 0, ptr %42, align 8, !tbaa !30
  %43 = getelementptr inbounds nuw i8, ptr %36, i64 32
  store i8 0, ptr %43, align 1, !tbaa !57
  br label %69

_ZN4leanL18is_utf8_first_byteEh.exit.thread:      ; preds = %24
  %spec.select = tail call i64 @llvm.umin.i64(i64 %11, i64 %14)
  %44 = icmp ult i64 %11, %14
  br i1 %44, label %45, label %_ZN4leanL18is_utf8_first_byteEh.exit36.thread

45:                                               ; preds = %_ZN4leanL18is_utf8_first_byteEh.exit.thread
  %46 = getelementptr inbounds nuw i8, ptr %12, i64 %spec.select
  %47 = load i8, ptr %46, align 1, !tbaa !57
  %.fr = freeze i8 %47
  %48 = zext i8 %.fr to i32
  %49 = icmp sgt i8 %.fr, -1
  %50 = and i32 %48, 224
  %51 = icmp eq i32 %50, 192
  %or.cond.i34 = or i1 %49, %51
  %52 = and i32 %48, 240
  %53 = icmp eq i32 %52, 224
  %or.cond6.i35 = or i1 %53, %or.cond.i34
  %54 = and i32 %48, 248
  %55 = icmp eq i32 %54, 240
  %or.cond44 = or i1 %55, %or.cond6.i35
  %spec.select45 = select i1 %or.cond44, i64 %spec.select, i64 %14
  br label %_ZN4leanL18is_utf8_first_byteEh.exit36.thread

_ZN4leanL18is_utf8_first_byteEh.exit36.thread:    ; preds = %45, %_ZN4leanL18is_utf8_first_byteEh.exit.thread
  %.127 = phi i64 [ %spec.select, %_ZN4leanL18is_utf8_first_byteEh.exit.thread ], [ %spec.select45, %45 ]
  %56 = sub i64 %.127, %10
  %57 = tail call noundef i64 @_ZN4lean11utf8_strlenEPKcm(ptr noundef nonnull %25, i64 noundef %56)
  %58 = add i64 %56, 33
  %59 = tail call noalias ptr @mi_malloc(i64 noundef %58) #40
  %60 = icmp eq ptr %59, null
  br i1 %60, label %61, label %lean_mk_string_from_bytes_unchecked.exit

61:                                               ; preds = %_ZN4leanL18is_utf8_first_byteEh.exit36.thread
  tail call void @lean_internal_panic_out_of_memory() #43
  unreachable

lean_mk_string_from_bytes_unchecked.exit:         ; preds = %_ZN4leanL18is_utf8_first_byteEh.exit36.thread
  %62 = add i64 %56, 1
  %63 = getelementptr inbounds nuw i8, ptr %59, i64 4
  store i32 1, ptr %59, align 4, !tbaa !23
  store i32 -117440512, ptr %63, align 4
  %64 = getelementptr inbounds nuw i8, ptr %59, i64 8
  store i64 %62, ptr %64, align 8, !tbaa !30
  %65 = getelementptr inbounds nuw i8, ptr %59, i64 16
  store i64 %62, ptr %65, align 8, !tbaa !30
  %66 = getelementptr inbounds nuw i8, ptr %59, i64 24
  store i64 %57, ptr %66, align 8, !tbaa !30
  %67 = getelementptr inbounds nuw i8, ptr %59, i64 32
  tail call void @llvm.memcpy.p0.p0.i64(ptr nonnull align 1 %67, ptr nonnull readonly align 1 %25, i64 %56, i1 false)
  %68 = getelementptr inbounds nuw i8, ptr %67, i64 %56
  store i8 0, ptr %68, align 1, !tbaa !57
  br label %69

69:                                               ; preds = %lean_mk_string_unchecked.exit, %lean_mk_string_unchecked.exit33, %lean_mk_string_from_bytes_unchecked.exit, %3, %6
  %.0 = phi ptr [ %0, %6 ], [ %0, %3 ], [ %16, %lean_mk_string_unchecked.exit ], [ %59, %lean_mk_string_from_bytes_unchecked.exit ], [ %36, %lean_mk_string_unchecked.exit33 ]
  ret ptr %.0
}